target datalayout = "e-m:e-p270:32:32-p271:32:32-p272:64:64-i64:64-i128:128-f80:128-n8:16:32:64-S128"
target triple = "x86_64-pc-linux-gnu"

%struct._zend_executor_globals = type { %struct._zval_struct, %struct._zval_struct, [32 x ptr], ptr, ptr, %struct._zend_array, %struct._zend_array, ptr, i32, i32, ptr, ptr, ptr, ptr, ptr, ptr, i64, ptr, ptr, i32, i32, i64, i32, i32, i32, i8, i8, %struct.zend_atomic_bool_s, %struct.zend_atomic_bool_s, ptr, i64, ptr, ptr, %struct._zend_array, %struct._zend_array, i32, i8, %struct._zval_struct, %struct._zval_struct, %struct._zend_stack, %struct._zend_stack, %struct._zend_stack, ptr, i32, i32, i64, ptr, ptr, ptr, %struct._zend_objects_store, ptr, ptr, ptr, [3 x %struct._zend_op], ptr, i8, i8, i64, i32, i32, ptr, [16 x %struct._HashTableIterator], ptr, %union._zend_function, %struct._zend_op, %struct._zend_array, i64, %struct.zend_get_gc_buffer, ptr, ptr, ptr, i64, i8, i32, ptr, ptr, i64, %struct._zend_call_stack, i64, i64, [6 x ptr] }
%struct.zend_atomic_bool_s = type { i8 }
%struct._zval_struct = type { %union._zend_value, %union.anon, %union.anon.2 }
%union._zend_value = type { i64 }
%union.anon = type { i32 }
%union.anon.2 = type { i32 }
%struct._zend_stack = type { i32, i32, i32, ptr }
%struct._zend_objects_store = type { ptr, i32, i32, i32 }
%struct._HashTableIterator = type { ptr, i32, i32 }
%union._zend_function = type { %struct._zend_op_array }
%struct._zend_op_array = type { i8, [3 x i8], i32, ptr, ptr, ptr, i32, i32, ptr, ptr, ptr, ptr, i32, i32, i32, i32, ptr, ptr, ptr, ptr, ptr, i32, i32, ptr, ptr, ptr, i32, i32, i32, i32, ptr, ptr, [6 x ptr] }
%struct._zend_op = type { ptr, %union._znode_op, %union._znode_op, %union._znode_op, i32, i32, i8, i8, i8, i8 }
%union._znode_op = type { i32 }
%struct._zend_array = type { %struct._zend_refcounted_h, %union.anon.4, i32, %union.anon.6, i32, i32, i32, i32, i64, ptr }
%struct._zend_refcounted_h = type { i32, %union.anon.3 }
%union.anon.3 = type { i32 }
%union.anon.4 = type { i32 }
%union.anon.6 = type { ptr }
%struct.zend_get_gc_buffer = type { ptr, ptr, ptr }
%struct._zend_call_stack = type { ptr, i64 }
%struct._zend_string = type { %struct._zend_refcounted_h, i64, i64, [1 x i8] }
%struct._dom_object = type { ptr, ptr, ptr, %struct._zend_object }
%struct._zend_object = type { %struct._zend_refcounted_h, i32, ptr, ptr, ptr, [1 x %struct._zval_struct] }
%struct._zend_execute_data = type { ptr, ptr, ptr, ptr, %struct._zval_struct, ptr, ptr, ptr, ptr }
%struct._zend_class_entry = type { i8, ptr, %union.anon.8, i32, i32, i32, i32, ptr, ptr, ptr, %struct._zend_array, %struct._zend_array, %struct._zend_array, ptr, ptr, ptr, ptr, ptr, ptr, ptr, ptr, ptr, ptr, ptr, ptr, ptr, ptr, ptr, ptr, ptr, ptr, ptr, %union.anon.9, ptr, ptr, ptr, ptr, i32, i32, %union.anon.10, ptr, ptr, ptr, ptr, i32, ptr, ptr, %union.anon.11 }
%union.anon.8 = type { ptr }
%union.anon.9 = type { ptr }
%union.anon.10 = type { ptr }
%union.anon.11 = type { %struct.anon.12 }
%struct.anon.12 = type { ptr, i32, i32 }
%struct._php_libxml_node_ptr = type { ptr, i32, ptr }
%struct._xmlNode = type { ptr, i32, ptr, ptr, ptr, ptr, ptr, ptr, ptr, ptr, ptr, ptr, ptr, ptr, i16, i16 }

@xmlFree = external global ptr, align 8
@executor_globals = external global %struct._zend_executor_globals, align 8
@.str.2 = private unnamed_addr constant [18 x i8] c"Couldn't fetch %s\00", align 1
@.str.6 = private unnamed_addr constant [6 x i8] c"s!s|s\00", align 1

; Function Attrs: nounwind uwtable
define internal ptr @php_dom_obj_from_obj(ptr noundef %0) #0 {
  %2 = alloca ptr, align 8
  store ptr %0, ptr %2, align 8
  %3 = load ptr, ptr %2, align 8
  %4 = getelementptr inbounds i8, ptr %3, i64 -24
  ret ptr %4
}

; Function Attrs: nounwind uwtable
define hidden void @zim_DOM_Document_createElementNS(ptr noundef %0, ptr noundef %1) #0 {
  %3 = alloca ptr, align 8
  %4 = alloca ptr, align 8
  %5 = alloca ptr, align 8
  %6 = alloca ptr, align 8
  %7 = alloca ptr, align 8
  %8 = alloca i32, align 4
  %9 = alloca i64, align 8
  %10 = alloca i64, align 8
  %11 = alloca i64, align 8
  %12 = alloca ptr, align 8
  %13 = alloca ptr, align 8
  %14 = alloca ptr, align 8
  %15 = alloca ptr, align 8
  %16 = alloca ptr, align 8
  %17 = alloca i32, align 4
  %18 = alloca ptr, align 8
  %19 = alloca ptr, align 8
  store ptr %0, ptr %3, align 8
  store ptr %1, ptr %4, align 8
  store ptr null, ptr %7, align 8
  store i64 0, ptr %9, align 8
  store i64 0, ptr %10, align 8
  store i64 0, ptr %11, align 8
  store ptr null, ptr %14, align 8
  store ptr null, ptr %15, align 8
  store ptr null, ptr %16, align 8
  %20 = load ptr, ptr %3, align 8
  %21 = getelementptr inbounds %struct._zend_execute_data, ptr %20, i32 0, i32 4
  store ptr %21, ptr %5, align 8
  %22 = load ptr, ptr %3, align 8
  %23 = getelementptr inbounds %struct._zend_execute_data, ptr %22, i32 0, i32 4
  %24 = getelementptr inbounds %struct._zval_struct, ptr %23, i32 0, i32 2
  %25 = load i32, ptr %24, align 4
  %26 = call i32 (i32, ptr, ...) @zend_parse_parameters(i32 noundef %25, ptr noundef @.str.6, ptr noundef %12, ptr noundef %9, ptr noundef %13, ptr noundef %10, ptr noundef %14, ptr noundef %11)
  %27 = icmp eq i32 %26, -1
  br i1 %27, label %28, label %33

28:                                               ; preds = %2
  br label %29

29:                                               ; preds = %28
  %30 = load ptr, ptr getelementptr inbounds (%struct._zend_executor_globals, ptr @executor_globals, i32 0, i32 50), align 8
  %31 = icmp ne ptr %30, null
  call void @llvm.assume(i1 %31)
  br label %148

32:                                               ; No predecessors!
  br label %33

33:                                               ; preds = %32, %2
  %34 = load ptr, ptr %5, align 8
  %35 = getelementptr inbounds %struct._zval_struct, ptr %34, i32 0, i32 0
  %36 = load ptr, ptr %35, align 8
  %37 = call ptr @php_dom_obj_from_obj(ptr noundef %36)
  store ptr %37, ptr %18, align 8
  %38 = load ptr, ptr %18, align 8
  %39 = getelementptr inbounds %struct._dom_object, ptr %38, i32 0, i32 0
  %40 = load ptr, ptr %39, align 8
  %41 = icmp eq ptr %40, null
  %42 = xor i1 %41, true
  %43 = xor i1 %42, true
  %44 = zext i1 %43 to i32
  %45 = sext i32 %44 to i64
  %46 = icmp ne i64 %45, 0
  br i1 %46, label %47, label %60

47:                                               ; preds = %33
  %48 = load ptr, ptr %18, align 8
  %49 = getelementptr inbounds %struct._dom_object, ptr %48, i32 0, i32 3
  %50 = getelementptr inbounds %struct._zend_object, ptr %49, i32 0, i32 2
  %51 = load ptr, ptr %50, align 8
  %52 = getelementptr inbounds %struct._zend_class_entry, ptr %51, i32 0, i32 1
  %53 = load ptr, ptr %52, align 8
  %54 = getelementptr inbounds %struct._zend_string, ptr %53, i32 0, i32 3
  %55 = getelementptr inbounds [1 x i8], ptr %54, i64 0, i64 0
  call void (ptr, ptr, ...) @zend_throw_error(ptr noundef null, ptr noundef @.str.2, ptr noundef %55)
  br label %56

56:                                               ; preds = %47
  %57 = load ptr, ptr getelementptr inbounds (%struct._zend_executor_globals, ptr @executor_globals, i32 0, i32 50), align 8
  %58 = icmp ne ptr %57, null
  call void @llvm.assume(i1 %58)
  br label %148

59:                                               ; No predecessors!
  br label %60

60:                                               ; preds = %59, %33
  %61 = load ptr, ptr %18, align 8
  %62 = getelementptr inbounds %struct._dom_object, ptr %61, i32 0, i32 0
  %63 = load ptr, ptr %62, align 8
  %64 = getelementptr inbounds %struct._php_libxml_node_ptr, ptr %63, i32 0, i32 0
  %65 = load ptr, ptr %64, align 8
  store ptr %65, ptr %6, align 8
  %66 = load ptr, ptr %13, align 8
  %67 = load i64, ptr %9, align 8
  %68 = trunc i64 %67 to i32
  %69 = load i64, ptr %10, align 8
  %70 = trunc i64 %69 to i32
  %71 = call i32 @dom_check_qname(ptr noundef %66, ptr noundef %15, ptr noundef %16, i32 noundef %68, i32 noundef %70)
  store i32 %71, ptr %17, align 4
  %72 = load i32, ptr %17, align 4
  %73 = icmp eq i32 %72, 0
  br i1 %73, label %74, label %118

74:                                               ; preds = %60
  %75 = load ptr, ptr %15, align 8
  %76 = call i32 @xmlValidateName(ptr noundef %75, i32 noundef 0)
  %77 = icmp eq i32 %76, 0
  br i1 %77, label %78, label %116

78:                                               ; preds = %74
  %79 = load ptr, ptr %6, align 8
  %80 = load ptr, ptr %15, align 8
  %81 = load ptr, ptr %14, align 8
  %82 = call ptr @xmlNewDocNode(ptr noundef %79, ptr noundef null, ptr noundef %80, ptr noundef %81)
  store ptr %82, ptr %7, align 8
  %83 = load ptr, ptr %7, align 8
  %84 = icmp eq ptr %83, null
  %85 = xor i1 %84, true
  %86 = xor i1 %85, true
  %87 = zext i1 %86 to i32
  %88 = sext i32 %87 to i64
  %89 = icmp ne i64 %88, 0
  br i1 %89, label %90, label %95

90:                                               ; preds = %78
  call void @php_dom_throw_error(i32 noundef 11, i32 noundef 1)
  br label %91

91:                                               ; preds = %90
  %92 = load ptr, ptr getelementptr inbounds (%struct._zend_executor_globals, ptr @executor_globals, i32 0, i32 50), align 8
  %93 = icmp ne ptr %92, null
  call void @llvm.assume(i1 %93)
  br label %148

94:                                               ; No predecessors!
  br label %95

95:                                               ; preds = %94, %78
  %96 = load ptr, ptr %12, align 8
  %97 = icmp ne ptr %96, null
  br i1 %97, label %98, label %115

98:                                               ; preds = %95
  %99 = load ptr, ptr %7, align 8
  %100 = getelementptr inbounds %struct._xmlNode, ptr %99, i32 0, i32 8
  %101 = load ptr, ptr %100, align 8
  %102 = load ptr, ptr %7, align 8
  %103 = load ptr, ptr %12, align 8
  %104 = call ptr @xmlSearchNsByHref(ptr noundef %101, ptr noundef %102, ptr noundef %103)
  store ptr %104, ptr %19, align 8
  %105 = load ptr, ptr %19, align 8
  %106 = icmp eq ptr %105, null
  br i1 %106, label %107, label %112

107:                                              ; preds = %98
  %108 = load ptr, ptr %7, align 8
  %109 = load ptr, ptr %12, align 8
  %110 = load ptr, ptr %16, align 8
  %111 = call ptr @dom_get_ns(ptr noundef %108, ptr noundef %109, ptr noundef %17, ptr noundef %110)
  store ptr %111, ptr %19, align 8
  br label %112

112:                                              ; preds = %107, %98
  %113 = load ptr, ptr %7, align 8
  %114 = load ptr, ptr %19, align 8
  call void @xmlSetNs(ptr noundef %113, ptr noundef %114)
  br label %115

115:                                              ; preds = %112, %95
  br label %117

116:                                              ; preds = %74
  store i32 5, ptr %17, align 4
  br label %117

117:                                              ; preds = %116, %115
  br label %118

118:                                              ; preds = %117, %60
  %119 = load ptr, ptr @xmlFree, align 8
  %120 = load ptr, ptr %15, align 8
  call void %119(ptr noundef %120)
  %121 = load ptr, ptr %16, align 8
  %122 = icmp ne ptr %121, null
  br i1 %122, label %123, label %126

123:                                              ; preds = %118
  %124 = load ptr, ptr @xmlFree, align 8
  %125 = load ptr, ptr %16, align 8
  call void %124(ptr noundef %125)
  br label %126

126:                                              ; preds = %123, %118
  %127 = load i32, ptr %17, align 4
  %128 = icmp ne i32 %127, 0
  br i1 %128, label %129, label %142

129:                                              ; preds = %126
  %130 = load ptr, ptr %7, align 8
  call void @xmlFreeNode(ptr noundef %130)
  %131 = load i32, ptr %17, align 4
  %132 = load ptr, ptr %18, align 8
  %133 = getelementptr inbounds %struct._dom_object, ptr %132, i32 0, i32 1
  %134 = load ptr, ptr %133, align 8
  %135 = call i32 @dom_get_strict_error(ptr noundef %134)
  call void @php_dom_throw_error(i32 noundef %131, i32 noundef %135)
  br label %136

136:                                              ; preds = %129
  br label %137

137:                                              ; preds = %136
  %138 = load ptr, ptr %4, align 8
  %139 = getelementptr inbounds %struct._zval_struct, ptr %138, i32 0, i32 1
  store i32 2, ptr %139, align 8
  br label %140

140:                                              ; preds = %137
  br label %148

141:                                              ; No predecessors!
  br label %142

142:                                              ; preds = %141, %126
  %143 = load ptr, ptr %7, align 8
  %144 = load ptr, ptr %4, align 8
  %145 = load ptr, ptr %18, align 8
  %146 = call zeroext i1 @php_dom_create_object(ptr noundef %143, ptr noundef %144, ptr noundef %145)
  %147 = zext i1 %146 to i32
  store i32 %147, ptr %8, align 4
  br label %148

148:                                              ; preds = %142, %140, %91, %56, %29
  ret void
}