; Function Attrs: nounwind uwtable
define hidden void @zim_DOM_Document_createElementNS(ptr nocapture noundef readonly %0, ptr noundef %1) local_unnamed_addr #0 {
  %3 = alloca i64, align 8
  %4 = alloca i64, align 8
  %5 = alloca i64, align 8
  %6 = alloca ptr, align 8
  %7 = alloca ptr, align 8
  %8 = alloca ptr, align 8
  %9 = alloca ptr, align 8
  %10 = alloca ptr, align 8
  %11 = alloca i32, align 4
  store i64 0, ptr %3, align 8
  store i64 0, ptr %4, align 8
  store i64 0, ptr %5, align 8
  store ptr null, ptr %8, align 8
  store ptr null, ptr %9, align 8
  store ptr null, ptr %10, align 8
  %12 = getelementptr inbounds i8, ptr %0, i64 44
  %13 = load i32, ptr %12, align 4
  %14 = call i32 (i32, ptr, ...) @zend_parse_parameters(i32 noundef %13, ptr noundef nonnull @.str.6, ptr noundef nonnull %6, ptr noundef nonnull %3, ptr noundef nonnull %7, ptr noundef nonnull %4, ptr noundef nonnull %8, ptr noundef nonnull %5) #10
  %15 = icmp eq i32 %14, -1
  br i1 %15, label %16, label %19

16:                                               ; preds = %2
  %17 = load ptr, ptr getelementptr inbounds (%struct._zend_executor_globals, ptr @executor_globals, i64 0, i32 50), align 8
  %18 = icmp ne ptr %17, null
  call void @llvm.assume(i1 %18)
  br label %83

19:                                               ; preds = %2
  %20 = getelementptr inbounds i8, ptr %0, i64 32
  %21 = load ptr, ptr %20, align 8
  %22 = getelementptr inbounds i8, ptr %21, i64 -24
  %23 = load ptr, ptr %22, align 8
  %24 = icmp eq ptr %23, null
  br i1 %24, label %25, label %33

25:                                               ; preds = %19
  %26 = getelementptr inbounds i8, ptr %21, i64 16
  %27 = load ptr, ptr %26, align 8
  %28 = getelementptr inbounds i8, ptr %27, i64 8
  %29 = load ptr, ptr %28, align 8
  %30 = getelementptr inbounds i8, ptr %29, i64 24
  call void (ptr, ptr, ...) @zend_throw_error(ptr noundef null, ptr noundef nonnull @.str.2, ptr noundef nonnull %30) #10
  %31 = load ptr, ptr getelementptr inbounds (%struct._zend_executor_globals, ptr @executor_globals, i64 0, i32 50), align 8
  %32 = icmp ne ptr %31, null
  call void @llvm.assume(i1 %32)
  br label %83

33:                                               ; preds = %19
  %34 = load ptr, ptr %23, align 8
  %35 = load ptr, ptr %7, align 8
  %36 = load i64, ptr %3, align 8
  %37 = trunc i64 %36 to i32
  %38 = load i64, ptr %4, align 8
  %39 = trunc i64 %38 to i32
  %40 = call i32 @dom_check_qname(ptr noundef %35, ptr noundef nonnull %9, ptr noundef nonnull %10, i32 noundef %37, i32 noundef %39) #10
  store i32 %40, ptr %11, align 4
  %41 = icmp eq i32 %40, 0
  br i1 %41, label %42, label %67

42:                                               ; preds = %33
  %43 = load ptr, ptr %9, align 8
  %44 = call i32 @xmlValidateName(ptr noundef %43, i32 noundef 0) #10
  %45 = icmp eq i32 %44, 0
  br i1 %45, label %46, label %66

46:                                               ; preds = %42
  %47 = load ptr, ptr %9, align 8
  %48 = load ptr, ptr %8, align 8
  %49 = call ptr @xmlNewDocNode(ptr noundef %34, ptr noundef null, ptr noundef %47, ptr noundef %48) #10
  %50 = icmp eq ptr %49, null
  br i1 %50, label %51, label %54

51:                                               ; preds = %46
  call void @php_dom_throw_error(i32 noundef 11, i32 noundef 1) #10
  %52 = load ptr, ptr getelementptr inbounds (%struct._zend_executor_globals, ptr @executor_globals, i64 0, i32 50), align 8
  %53 = icmp ne ptr %52, null
  call void @llvm.assume(i1 %53)
  br label %83

54:                                               ; preds = %46
  %55 = load ptr, ptr %6, align 8
  %.not = icmp eq ptr %55, null
  br i1 %.not, label %67, label %56

56:                                               ; preds = %54
  %57 = getelementptr inbounds i8, ptr %49, i64 64
  %58 = load ptr, ptr %57, align 8
  %59 = call ptr @xmlSearchNsByHref(ptr noundef %58, ptr noundef nonnull %49, ptr noundef nonnull %55) #10
  %60 = icmp eq ptr %59, null
  br i1 %60, label %61, label %65

61:                                               ; preds = %56
  %62 = load ptr, ptr %6, align 8
  %63 = load ptr, ptr %10, align 8
  %64 = call ptr @dom_get_ns(ptr noundef nonnull %49, ptr noundef %62, ptr noundef nonnull %11, ptr noundef %63) #10
  br label %65

65:                                               ; preds = %61, %56
  %.0 = phi ptr [ %64, %61 ], [ %59, %56 ]
  call void @xmlSetNs(ptr noundef nonnull %49, ptr noundef %.0) #10
  br label %67

66:                                               ; preds = %42
  store i32 5, ptr %11, align 4
  br label %67

67:                                               ; preds = %66, %65, %54, %33
  %.020 = phi ptr [ %49, %65 ], [ %49, %54 ], [ null, %66 ], [ null, %33 ]
  %68 = load ptr, ptr @xmlFree, align 8
  %69 = load ptr, ptr %9, align 8
  call void %68(ptr noundef %69) #10
  %70 = load ptr, ptr %10, align 8
  %.not26 = icmp eq ptr %70, null
  br i1 %.not26, label %73, label %71

71:                                               ; preds = %67
  %72 = load ptr, ptr @xmlFree, align 8
  call void %72(ptr noundef nonnull %70) #10
  br label %73

73:                                               ; preds = %71, %67
  %74 = load i32, ptr %11, align 4
  %.not27 = icmp eq i32 %74, 0
  br i1 %.not27, label %81, label %75

75:                                               ; preds = %73
  call void @xmlFreeNode(ptr noundef %.020) #10
  %76 = load i32, ptr %11, align 4
  %77 = getelementptr inbounds i8, ptr %21, i64 -16
  %78 = load ptr, ptr %77, align 8
  %79 = call i32 @dom_get_strict_error(ptr noundef %78) #10
  call void @php_dom_throw_error(i32 noundef %76, i32 noundef %79) #10
  %80 = getelementptr inbounds i8, ptr %1, i64 8
  store i32 2, ptr %80, align 8
  br label %83

81:                                               ; preds = %73
  %82 = call zeroext i1 @php_dom_create_object(ptr noundef %.020, ptr noundef %1, ptr noundef nonnull %22) #10
  br label %83

83:                                               ; preds = %81, %75, %51, %25, %16
  ret void
}